; ModuleID = '1/1345.c'
source_filename = "1/1345.c"
target datalayout = "e-m:e-p270:32:32-p271:32:32-p272:64:64-i64:64-f80:128-n8:16:32:64-S128"
target triple = "x86_64-pc-linux-gnu"

@.str = private unnamed_addr constant [3 x i8] c"%d\00", align 1
@.str.1 = private unnamed_addr constant [4 x i8] c"%d\0A\00", align 1

; Function Attrs: noinline nounwind uwtable
define dso_local i32 @tru(i32 %0) #0 {
  %2 = alloca i32, align 4
  %3 = alloca i32, align 4
  %4 = alloca i32, align 4
  %5 = alloca i32, align 4
  store i32 %0, i32* %3, align 4
  store i32 0, i32* %5, align 4
  %6 = load i32, i32* %3, align 4
  %7 = icmp eq i32 %6, 1
  br i1 %7, label %11, label %8

8:                                                ; preds = %1
  %9 = load i32, i32* %3, align 4
  %10 = icmp eq i32 %9, 2
  br i1 %10, label %11, label %12

11:                                               ; preds = %8, %1
  store i32 1, i32* %2, align 4
  br label %36

12:                                               ; preds = %8
  store i32 2, i32* %4, align 4
  br label %13

13:                                               ; preds = %27, %12
  %14 = load i32, i32* %4, align 4
  %15 = sitofp i32 %14 to double
  %16 = load i32, i32* %3, align 4
  %17 = sitofp i32 %16 to double
  %18 = call double @pow(double %17, double 5.000000e-01) #3
  %19 = fcmp ole double %15, %18
  br i1 %19, label %20, label %30

20:                                               ; preds = %13
  %21 = load i32, i32* %3, align 4
  %22 = load i32, i32* %4, align 4
  %23 = srem i32 %21, %22
  %24 = icmp eq i32 %23, 0
  br i1 %24, label %25, label %26

25:                                               ; preds = %20
  store i32 1, i32* %5, align 4
  br label %30

26:                                               ; preds = %20
  br label %27

27:                                               ; preds = %26
  %28 = load i32, i32* %4, align 4
  %29 = add nsw i32 %28, 1
  store i32 %29, i32* %4, align 4
  br label %13

30:                                               ; preds = %25, %13
  br label %31

31:                                               ; preds = %30
  %32 = load i32, i32* %5, align 4
  %33 = icmp eq i32 %32, 1
  br i1 %33, label %34, label %35

34:                                               ; preds = %31
  store i32 0, i32* %2, align 4
  br label %36

35:                                               ; preds = %31
  store i32 1, i32* %2, align 4
  br label %36

36:                                               ; preds = %35, %34, %11
  %37 = load i32, i32* %2, align 4
  ret i32 %37
}

; Function Attrs: nounwind
declare dso_local double @pow(double, double) #1

; Function Attrs: noinline nounwind uwtable
define dso_local i32 @count(i32 %0, i32 %1) #0 {
  %3 = alloca i32, align 4
  %4 = alloca i32, align 4
  %5 = alloca i32, align 4
  %6 = alloca i32, align 4
  store i32 %0, i32* %3, align 4
  store i32 %1, i32* %4, align 4
  store i32 1, i32* %6, align 4
  %7 = load i32, i32* %3, align 4
  %8 = call i32 @tru(i32 %7)
  %9 = icmp ne i32 %8, 0
  br i1 %9, label %37, label %10

10:                                               ; preds = %2
  %11 = load i32, i32* %4, align 4
  store i32 %11, i32* %5, align 4
  br label %12

12:                                               ; preds = %33, %10
  %13 = load i32, i32* %5, align 4
  %14 = sitofp i32 %13 to double
  %15 = load i32, i32* %3, align 4
  %16 = sitofp i32 %15 to double
  %17 = call double @pow(double %16, double 5.000000e-01) #3
  %18 = fcmp ole double %14, %17
  br i1 %18, label %19, label %36

19:                                               ; preds = %12
  %20 = load i32, i32* %3, align 4
  %21 = load i32, i32* %5, align 4
  %22 = srem i32 %20, %21
  %23 = icmp eq i32 %22, 0
  br i1 %23, label %24, label %32

24:                                               ; preds = %19
  %25 = load i32, i32* %6, align 4
  %26 = load i32, i32* %3, align 4
  %27 = load i32, i32* %5, align 4
  %28 = sdiv i32 %26, %27
  %29 = load i32, i32* %5, align 4
  %30 = call i32 @count(i32 %28, i32 %29)
  %31 = add nsw i32 %25, %30
  store i32 %31, i32* %6, align 4
  br label %32

32:                                               ; preds = %24, %19
  br label %33

33:                                               ; preds = %32
  %34 = load i32, i32* %5, align 4
  %35 = add nsw i32 %34, 1
  store i32 %35, i32* %5, align 4
  br label %12

36:                                               ; preds = %12
  br label %37

37:                                               ; preds = %36, %2
  %38 = load i32, i32* %6, align 4
  ret i32 %38
}

; Function Attrs: noinline nounwind uwtable
define dso_local i32 @main() #0 {
  %1 = alloca i32, align 4
  %2 = alloca i32, align 4
  %3 = alloca [999 x i32], align 16
  %4 = alloca i32, align 4
  store i32 0, i32* %1, align 4
  %5 = call i32 (i8*, ...) @__isoc99_scanf(i8* getelementptr inbounds ([3 x i8], [3 x i8]* @.str, i64 0, i64 0), i32* %2)
  store i32 0, i32* %4, align 4
  br label %6

6:                                                ; preds = %15, %0
  %7 = load i32, i32* %4, align 4
  %8 = load i32, i32* %2, align 4
  %9 = icmp slt i32 %7, %8
  br i1 %9, label %10, label %18

10:                                               ; preds = %6
  %11 = load i32, i32* %4, align 4
  %12 = sext i32 %11 to i64
  %13 = getelementptr inbounds [999 x i32], [999 x i32]* %3, i64 0, i64 %12
  %14 = call i32 (i8*, ...) @__isoc99_scanf(i8* getelementptr inbounds ([3 x i8], [3 x i8]* @.str, i64 0, i64 0), i32* %13)
  br label %15

15:                                               ; preds = %10
  %16 = load i32, i32* %4, align 4
  %17 = add nsw i32 %16, 1
  store i32 %17, i32* %4, align 4
  br label %6

18:                                               ; preds = %6
  store i32 0, i32* %4, align 4
  br label %19

19:                                               ; preds = %30, %18
  %20 = load i32, i32* %4, align 4
  %21 = load i32, i32* %2, align 4
  %22 = icmp slt i32 %20, %21
  br i1 %22, label %23, label %33

23:                                               ; preds = %19
  %24 = load i32, i32* %4, align 4
  %25 = sext i32 %24 to i64
  %26 = getelementptr inbounds [999 x i32], [999 x i32]* %3, i64 0, i64 %25
  %27 = load i32, i32* %26, align 4
  %28 = call i32 @count(i32 %27, i32 2)
  %29 = call i32 (i8*, ...) @printf(i8* getelementptr inbounds ([4 x i8], [4 x i8]* @.str.1, i64 0, i64 0), i32 %28)
  br label %30

30:                                               ; preds = %23
  %31 = load i32, i32* %4, align 4
  %32 = add nsw i32 %31, 1
  store i32 %32, i32* %4, align 4
  br label %19

33:                                               ; preds = %19
  ret i32 0
}

declare dso_local i32 @__isoc99_scanf(i8*, ...) #2

declare dso_local i32 @printf(i8*, ...) #2


!llvm.module.flags = !{!0}
!llvm.ident = !{!1}

!0 = !{i32 1, !"wchar_size", i32 4}
!1 = !{!"clang version 10.0.0-4ubuntu1 "}
